ARM GAS  C:\Users\black\AppData\Local\Temp\ccpcAeEZ.s 			page 1


   1              		.syntax unified
   2              		.cpu cortex-m0
   3              		.fpu softvfp
   4              		.eabi_attribute 20, 1
   5              		.eabi_attribute 21, 1
   6              		.eabi_attribute 23, 3
   7              		.eabi_attribute 24, 1
   8              		.eabi_attribute 25, 1
   9              		.eabi_attribute 26, 1
  10              		.eabi_attribute 30, 6
  11              		.eabi_attribute 34, 0
  12              		.eabi_attribute 18, 4
  13              		.thumb
  14              		.syntax unified
  15              		.file	"Pwm_PM.c"
  16              		.text
  17              	.Ltext0:
  18              		.cfi_sections	.debug_frame
  19              		.bss
  20              		.align	2
  21              	Pwm_backup:
  22 0000 00000000 		.space	4
  23              		.section	.text.Pwm_SaveConfig,"ax",%progbits
  24              		.align	2
  25              		.global	Pwm_SaveConfig
  26              		.code	16
  27              		.thumb_func
  28              		.type	Pwm_SaveConfig, %function
  29              	Pwm_SaveConfig:
  30              	.LFB2:
  31              		.file 1 "Generated_Source\\PSoC4\\Pwm_PM.c"
   1:Generated_Source\PSoC4/Pwm_PM.c **** /*******************************************************************************
   2:Generated_Source\PSoC4/Pwm_PM.c **** * File Name: Pwm_PM.c
   3:Generated_Source\PSoC4/Pwm_PM.c **** * Version 3.30
   4:Generated_Source\PSoC4/Pwm_PM.c **** *
   5:Generated_Source\PSoC4/Pwm_PM.c **** * Description:
   6:Generated_Source\PSoC4/Pwm_PM.c **** *  This file provides the power management source code to API for the
   7:Generated_Source\PSoC4/Pwm_PM.c **** *  PWM.
   8:Generated_Source\PSoC4/Pwm_PM.c **** *
   9:Generated_Source\PSoC4/Pwm_PM.c **** * Note:
  10:Generated_Source\PSoC4/Pwm_PM.c **** *
  11:Generated_Source\PSoC4/Pwm_PM.c **** ********************************************************************************
  12:Generated_Source\PSoC4/Pwm_PM.c **** * Copyright 2008-2014, Cypress Semiconductor Corporation.  All rights reserved.
  13:Generated_Source\PSoC4/Pwm_PM.c **** * You may use this file only in accordance with the license, terms, conditions,
  14:Generated_Source\PSoC4/Pwm_PM.c **** * disclaimers, and limitations in the end user license agreement accompanying
  15:Generated_Source\PSoC4/Pwm_PM.c **** * the software package with which this file was provided.
  16:Generated_Source\PSoC4/Pwm_PM.c **** *******************************************************************************/
  17:Generated_Source\PSoC4/Pwm_PM.c **** 
  18:Generated_Source\PSoC4/Pwm_PM.c **** #include "Pwm.h"
  19:Generated_Source\PSoC4/Pwm_PM.c **** 
  20:Generated_Source\PSoC4/Pwm_PM.c **** static Pwm_backupStruct Pwm_backup;
  21:Generated_Source\PSoC4/Pwm_PM.c **** 
  22:Generated_Source\PSoC4/Pwm_PM.c **** 
  23:Generated_Source\PSoC4/Pwm_PM.c **** /*******************************************************************************
  24:Generated_Source\PSoC4/Pwm_PM.c **** * Function Name: Pwm_SaveConfig
  25:Generated_Source\PSoC4/Pwm_PM.c **** ********************************************************************************
  26:Generated_Source\PSoC4/Pwm_PM.c **** *
ARM GAS  C:\Users\black\AppData\Local\Temp\ccpcAeEZ.s 			page 2


  27:Generated_Source\PSoC4/Pwm_PM.c **** * Summary:
  28:Generated_Source\PSoC4/Pwm_PM.c **** *  Saves the current user configuration of the component.
  29:Generated_Source\PSoC4/Pwm_PM.c **** *
  30:Generated_Source\PSoC4/Pwm_PM.c **** * Parameters:
  31:Generated_Source\PSoC4/Pwm_PM.c **** *  None
  32:Generated_Source\PSoC4/Pwm_PM.c **** *
  33:Generated_Source\PSoC4/Pwm_PM.c **** * Return:
  34:Generated_Source\PSoC4/Pwm_PM.c **** *  None
  35:Generated_Source\PSoC4/Pwm_PM.c **** *
  36:Generated_Source\PSoC4/Pwm_PM.c **** * Global variables:
  37:Generated_Source\PSoC4/Pwm_PM.c **** *  Pwm_backup:  Variables of this global structure are modified to
  38:Generated_Source\PSoC4/Pwm_PM.c **** *  store the values of non retention configuration registers when Sleep() API is
  39:Generated_Source\PSoC4/Pwm_PM.c **** *  called.
  40:Generated_Source\PSoC4/Pwm_PM.c **** *
  41:Generated_Source\PSoC4/Pwm_PM.c **** *******************************************************************************/
  42:Generated_Source\PSoC4/Pwm_PM.c **** void Pwm_SaveConfig(void) 
  43:Generated_Source\PSoC4/Pwm_PM.c **** {
  32              		.loc 1 43 0
  33              		.cfi_startproc
  34              		@ args = 0, pretend = 0, frame = 0
  35              		@ frame_needed = 1, uses_anonymous_args = 0
  36 0000 80B5     		push	{r7, lr}
  37              		.cfi_def_cfa_offset 8
  38              		.cfi_offset 7, -8
  39              		.cfi_offset 14, -4
  40 0002 00AF     		add	r7, sp, #0
  41              		.cfi_def_cfa_register 7
  44:Generated_Source\PSoC4/Pwm_PM.c **** 
  45:Generated_Source\PSoC4/Pwm_PM.c ****     #if(!Pwm_UsingFixedFunction)
  46:Generated_Source\PSoC4/Pwm_PM.c ****         #if(!Pwm_PWMModeIsCenterAligned)
  47:Generated_Source\PSoC4/Pwm_PM.c ****             Pwm_backup.PWMPeriod = Pwm_ReadPeriod();
  42              		.loc 1 47 0
  43 0004 FFF7FEFF 		bl	Pwm_ReadPeriod
  44 0008 0300     		movs	r3, r0
  45 000a 1A00     		movs	r2, r3
  46 000c 084B     		ldr	r3, .L2
  47 000e 9A70     		strb	r2, [r3, #2]
  48:Generated_Source\PSoC4/Pwm_PM.c ****         #endif /* (!Pwm_PWMModeIsCenterAligned) */
  49:Generated_Source\PSoC4/Pwm_PM.c ****         Pwm_backup.PWMUdb = Pwm_ReadCounter();
  48              		.loc 1 49 0
  49 0010 FFF7FEFF 		bl	Pwm_ReadCounter
  50 0014 0300     		movs	r3, r0
  51 0016 1A00     		movs	r2, r3
  52 0018 054B     		ldr	r3, .L2
  53 001a 5A70     		strb	r2, [r3, #1]
  50:Generated_Source\PSoC4/Pwm_PM.c ****         #if (Pwm_UseStatus)
  51:Generated_Source\PSoC4/Pwm_PM.c ****             Pwm_backup.InterruptMaskValue = Pwm_STATUS_MASK;
  52:Generated_Source\PSoC4/Pwm_PM.c ****         #endif /* (Pwm_UseStatus) */
  53:Generated_Source\PSoC4/Pwm_PM.c **** 
  54:Generated_Source\PSoC4/Pwm_PM.c ****         #if(Pwm_DeadBandMode == Pwm__B_PWM__DBM_256_CLOCKS || \
  55:Generated_Source\PSoC4/Pwm_PM.c ****             Pwm_DeadBandMode == Pwm__B_PWM__DBM_2_4_CLOCKS)
  56:Generated_Source\PSoC4/Pwm_PM.c ****             Pwm_backup.PWMdeadBandValue = Pwm_ReadDeadTime();
  57:Generated_Source\PSoC4/Pwm_PM.c ****         #endif /*  deadband count is either 2-4 clocks or 256 clocks */
  58:Generated_Source\PSoC4/Pwm_PM.c **** 
  59:Generated_Source\PSoC4/Pwm_PM.c ****         #if(Pwm_KillModeMinTime)
  60:Generated_Source\PSoC4/Pwm_PM.c ****              Pwm_backup.PWMKillCounterPeriod = Pwm_ReadKillTime();
  61:Generated_Source\PSoC4/Pwm_PM.c ****         #endif /* (Pwm_KillModeMinTime) */
ARM GAS  C:\Users\black\AppData\Local\Temp\ccpcAeEZ.s 			page 3


  62:Generated_Source\PSoC4/Pwm_PM.c **** 
  63:Generated_Source\PSoC4/Pwm_PM.c ****         #if(Pwm_UseControl)
  64:Generated_Source\PSoC4/Pwm_PM.c ****             Pwm_backup.PWMControlRegister = Pwm_ReadControlRegister();
  54              		.loc 1 64 0
  55 001c FFF7FEFF 		bl	Pwm_ReadControlRegister
  56 0020 0300     		movs	r3, r0
  57 0022 1A00     		movs	r2, r3
  58 0024 024B     		ldr	r3, .L2
  59 0026 DA70     		strb	r2, [r3, #3]
  65:Generated_Source\PSoC4/Pwm_PM.c ****         #endif /* (Pwm_UseControl) */
  66:Generated_Source\PSoC4/Pwm_PM.c ****     #endif  /* (!Pwm_UsingFixedFunction) */
  67:Generated_Source\PSoC4/Pwm_PM.c **** }
  60              		.loc 1 67 0
  61 0028 C046     		nop
  62 002a BD46     		mov	sp, r7
  63              		@ sp needed
  64 002c 80BD     		pop	{r7, pc}
  65              	.L3:
  66 002e C046     		.align	2
  67              	.L2:
  68 0030 00000000 		.word	Pwm_backup
  69              		.cfi_endproc
  70              	.LFE2:
  71              		.size	Pwm_SaveConfig, .-Pwm_SaveConfig
  72              		.section	.text.Pwm_RestoreConfig,"ax",%progbits
  73              		.align	2
  74              		.global	Pwm_RestoreConfig
  75              		.code	16
  76              		.thumb_func
  77              		.type	Pwm_RestoreConfig, %function
  78              	Pwm_RestoreConfig:
  79              	.LFB3:
  68:Generated_Source\PSoC4/Pwm_PM.c **** 
  69:Generated_Source\PSoC4/Pwm_PM.c **** 
  70:Generated_Source\PSoC4/Pwm_PM.c **** /*******************************************************************************
  71:Generated_Source\PSoC4/Pwm_PM.c **** * Function Name: Pwm_RestoreConfig
  72:Generated_Source\PSoC4/Pwm_PM.c **** ********************************************************************************
  73:Generated_Source\PSoC4/Pwm_PM.c **** *
  74:Generated_Source\PSoC4/Pwm_PM.c **** * Summary:
  75:Generated_Source\PSoC4/Pwm_PM.c **** *  Restores the current user configuration of the component.
  76:Generated_Source\PSoC4/Pwm_PM.c **** *
  77:Generated_Source\PSoC4/Pwm_PM.c **** * Parameters:
  78:Generated_Source\PSoC4/Pwm_PM.c **** *  None
  79:Generated_Source\PSoC4/Pwm_PM.c **** *
  80:Generated_Source\PSoC4/Pwm_PM.c **** * Return:
  81:Generated_Source\PSoC4/Pwm_PM.c **** *  None
  82:Generated_Source\PSoC4/Pwm_PM.c **** *
  83:Generated_Source\PSoC4/Pwm_PM.c **** * Global variables:
  84:Generated_Source\PSoC4/Pwm_PM.c **** *  Pwm_backup:  Variables of this global structure are used to
  85:Generated_Source\PSoC4/Pwm_PM.c **** *  restore the values of non retention registers on wakeup from sleep mode.
  86:Generated_Source\PSoC4/Pwm_PM.c **** *
  87:Generated_Source\PSoC4/Pwm_PM.c **** *******************************************************************************/
  88:Generated_Source\PSoC4/Pwm_PM.c **** void Pwm_RestoreConfig(void) 
  89:Generated_Source\PSoC4/Pwm_PM.c **** {
  80              		.loc 1 89 0
  81              		.cfi_startproc
  82              		@ args = 0, pretend = 0, frame = 0
ARM GAS  C:\Users\black\AppData\Local\Temp\ccpcAeEZ.s 			page 4


  83              		@ frame_needed = 1, uses_anonymous_args = 0
  84 0000 80B5     		push	{r7, lr}
  85              		.cfi_def_cfa_offset 8
  86              		.cfi_offset 7, -8
  87              		.cfi_offset 14, -4
  88 0002 00AF     		add	r7, sp, #0
  89              		.cfi_def_cfa_register 7
  90:Generated_Source\PSoC4/Pwm_PM.c ****         #if(!Pwm_UsingFixedFunction)
  91:Generated_Source\PSoC4/Pwm_PM.c ****             #if(!Pwm_PWMModeIsCenterAligned)
  92:Generated_Source\PSoC4/Pwm_PM.c ****                 Pwm_WritePeriod(Pwm_backup.PWMPeriod);
  90              		.loc 1 92 0
  91 0004 084B     		ldr	r3, .L5
  92 0006 9B78     		ldrb	r3, [r3, #2]
  93 0008 1800     		movs	r0, r3
  94 000a FFF7FEFF 		bl	Pwm_WritePeriod
  93:Generated_Source\PSoC4/Pwm_PM.c ****             #endif /* (!Pwm_PWMModeIsCenterAligned) */
  94:Generated_Source\PSoC4/Pwm_PM.c **** 
  95:Generated_Source\PSoC4/Pwm_PM.c ****             Pwm_WriteCounter(Pwm_backup.PWMUdb);
  95              		.loc 1 95 0
  96 000e 064B     		ldr	r3, .L5
  97 0010 5B78     		ldrb	r3, [r3, #1]
  98 0012 1800     		movs	r0, r3
  99 0014 FFF7FEFF 		bl	Pwm_WriteCounter
  96:Generated_Source\PSoC4/Pwm_PM.c **** 
  97:Generated_Source\PSoC4/Pwm_PM.c ****             #if (Pwm_UseStatus)
  98:Generated_Source\PSoC4/Pwm_PM.c ****                 Pwm_STATUS_MASK = Pwm_backup.InterruptMaskValue;
  99:Generated_Source\PSoC4/Pwm_PM.c ****             #endif /* (Pwm_UseStatus) */
 100:Generated_Source\PSoC4/Pwm_PM.c **** 
 101:Generated_Source\PSoC4/Pwm_PM.c ****             #if(Pwm_DeadBandMode == Pwm__B_PWM__DBM_256_CLOCKS || \
 102:Generated_Source\PSoC4/Pwm_PM.c ****                 Pwm_DeadBandMode == Pwm__B_PWM__DBM_2_4_CLOCKS)
 103:Generated_Source\PSoC4/Pwm_PM.c ****                 Pwm_WriteDeadTime(Pwm_backup.PWMdeadBandValue);
 104:Generated_Source\PSoC4/Pwm_PM.c ****             #endif /* deadband count is either 2-4 clocks or 256 clocks */
 105:Generated_Source\PSoC4/Pwm_PM.c **** 
 106:Generated_Source\PSoC4/Pwm_PM.c ****             #if(Pwm_KillModeMinTime)
 107:Generated_Source\PSoC4/Pwm_PM.c ****                 Pwm_WriteKillTime(Pwm_backup.PWMKillCounterPeriod);
 108:Generated_Source\PSoC4/Pwm_PM.c ****             #endif /* (Pwm_KillModeMinTime) */
 109:Generated_Source\PSoC4/Pwm_PM.c **** 
 110:Generated_Source\PSoC4/Pwm_PM.c ****             #if(Pwm_UseControl)
 111:Generated_Source\PSoC4/Pwm_PM.c ****                 Pwm_WriteControlRegister(Pwm_backup.PWMControlRegister);
 100              		.loc 1 111 0
 101 0018 034B     		ldr	r3, .L5
 102 001a DB78     		ldrb	r3, [r3, #3]
 103 001c 1800     		movs	r0, r3
 104 001e FFF7FEFF 		bl	Pwm_WriteControlRegister
 112:Generated_Source\PSoC4/Pwm_PM.c ****             #endif /* (Pwm_UseControl) */
 113:Generated_Source\PSoC4/Pwm_PM.c ****         #endif  /* (!Pwm_UsingFixedFunction) */
 114:Generated_Source\PSoC4/Pwm_PM.c ****     }
 105              		.loc 1 114 0
 106 0022 C046     		nop
 107 0024 BD46     		mov	sp, r7
 108              		@ sp needed
 109 0026 80BD     		pop	{r7, pc}
 110              	.L6:
 111              		.align	2
 112              	.L5:
 113 0028 00000000 		.word	Pwm_backup
 114              		.cfi_endproc
ARM GAS  C:\Users\black\AppData\Local\Temp\ccpcAeEZ.s 			page 5


 115              	.LFE3:
 116              		.size	Pwm_RestoreConfig, .-Pwm_RestoreConfig
 117              		.section	.text.Pwm_Sleep,"ax",%progbits
 118              		.align	2
 119              		.global	Pwm_Sleep
 120              		.code	16
 121              		.thumb_func
 122              		.type	Pwm_Sleep, %function
 123              	Pwm_Sleep:
 124              	.LFB4:
 115:Generated_Source\PSoC4/Pwm_PM.c **** 
 116:Generated_Source\PSoC4/Pwm_PM.c **** 
 117:Generated_Source\PSoC4/Pwm_PM.c **** /*******************************************************************************
 118:Generated_Source\PSoC4/Pwm_PM.c **** * Function Name: Pwm_Sleep
 119:Generated_Source\PSoC4/Pwm_PM.c **** ********************************************************************************
 120:Generated_Source\PSoC4/Pwm_PM.c **** *
 121:Generated_Source\PSoC4/Pwm_PM.c **** * Summary:
 122:Generated_Source\PSoC4/Pwm_PM.c **** *  Disables block's operation and saves the user configuration. Should be called
 123:Generated_Source\PSoC4/Pwm_PM.c **** *  just prior to entering sleep.
 124:Generated_Source\PSoC4/Pwm_PM.c **** *
 125:Generated_Source\PSoC4/Pwm_PM.c **** * Parameters:
 126:Generated_Source\PSoC4/Pwm_PM.c **** *  None
 127:Generated_Source\PSoC4/Pwm_PM.c **** *
 128:Generated_Source\PSoC4/Pwm_PM.c **** * Return:
 129:Generated_Source\PSoC4/Pwm_PM.c **** *  None
 130:Generated_Source\PSoC4/Pwm_PM.c **** *
 131:Generated_Source\PSoC4/Pwm_PM.c **** * Global variables:
 132:Generated_Source\PSoC4/Pwm_PM.c **** *  Pwm_backup.PWMEnableState:  Is modified depending on the enable
 133:Generated_Source\PSoC4/Pwm_PM.c **** *  state of the block before entering sleep mode.
 134:Generated_Source\PSoC4/Pwm_PM.c **** *
 135:Generated_Source\PSoC4/Pwm_PM.c **** *******************************************************************************/
 136:Generated_Source\PSoC4/Pwm_PM.c **** void Pwm_Sleep(void) 
 137:Generated_Source\PSoC4/Pwm_PM.c **** {
 125              		.loc 1 137 0
 126              		.cfi_startproc
 127              		@ args = 0, pretend = 0, frame = 0
 128              		@ frame_needed = 1, uses_anonymous_args = 0
 129 0000 80B5     		push	{r7, lr}
 130              		.cfi_def_cfa_offset 8
 131              		.cfi_offset 7, -8
 132              		.cfi_offset 14, -4
 133 0002 00AF     		add	r7, sp, #0
 134              		.cfi_def_cfa_register 7
 138:Generated_Source\PSoC4/Pwm_PM.c ****     #if(Pwm_UseControl)
 139:Generated_Source\PSoC4/Pwm_PM.c ****         if(Pwm_CTRL_ENABLE == (Pwm_CONTROL & Pwm_CTRL_ENABLE))
 135              		.loc 1 139 0
 136 0004 094B     		ldr	r3, .L10
 137 0006 1B78     		ldrb	r3, [r3]
 138 0008 DBB2     		uxtb	r3, r3
 139 000a 5BB2     		sxtb	r3, r3
 140 000c 002B     		cmp	r3, #0
 141 000e 03DA     		bge	.L8
 140:Generated_Source\PSoC4/Pwm_PM.c ****         {
 141:Generated_Source\PSoC4/Pwm_PM.c ****             /*Component is enabled */
 142:Generated_Source\PSoC4/Pwm_PM.c ****             Pwm_backup.PWMEnableState = 1u;
 142              		.loc 1 142 0
 143 0010 074B     		ldr	r3, .L10+4
ARM GAS  C:\Users\black\AppData\Local\Temp\ccpcAeEZ.s 			page 6


 144 0012 0122     		movs	r2, #1
 145 0014 1A70     		strb	r2, [r3]
 146 0016 02E0     		b	.L9
 147              	.L8:
 143:Generated_Source\PSoC4/Pwm_PM.c ****         }
 144:Generated_Source\PSoC4/Pwm_PM.c ****         else
 145:Generated_Source\PSoC4/Pwm_PM.c ****         {
 146:Generated_Source\PSoC4/Pwm_PM.c ****             /* Component is disabled */
 147:Generated_Source\PSoC4/Pwm_PM.c ****             Pwm_backup.PWMEnableState = 0u;
 148              		.loc 1 147 0
 149 0018 054B     		ldr	r3, .L10+4
 150 001a 0022     		movs	r2, #0
 151 001c 1A70     		strb	r2, [r3]
 152              	.L9:
 148:Generated_Source\PSoC4/Pwm_PM.c ****         }
 149:Generated_Source\PSoC4/Pwm_PM.c ****     #endif /* (Pwm_UseControl) */
 150:Generated_Source\PSoC4/Pwm_PM.c **** 
 151:Generated_Source\PSoC4/Pwm_PM.c ****     /* Stop component */
 152:Generated_Source\PSoC4/Pwm_PM.c ****     Pwm_Stop();
 153              		.loc 1 152 0
 154 001e FFF7FEFF 		bl	Pwm_Stop
 153:Generated_Source\PSoC4/Pwm_PM.c **** 
 154:Generated_Source\PSoC4/Pwm_PM.c ****     /* Save registers configuration */
 155:Generated_Source\PSoC4/Pwm_PM.c ****     Pwm_SaveConfig();
 155              		.loc 1 155 0
 156 0022 FFF7FEFF 		bl	Pwm_SaveConfig
 156:Generated_Source\PSoC4/Pwm_PM.c **** }
 157              		.loc 1 156 0
 158 0026 C046     		nop
 159 0028 BD46     		mov	sp, r7
 160              		@ sp needed
 161 002a 80BD     		pop	{r7, pc}
 162              	.L11:
 163              		.align	2
 164              	.L10:
 165 002c 72000F40 		.word	1074724978
 166 0030 00000000 		.word	Pwm_backup
 167              		.cfi_endproc
 168              	.LFE4:
 169              		.size	Pwm_Sleep, .-Pwm_Sleep
 170              		.section	.text.Pwm_Wakeup,"ax",%progbits
 171              		.align	2
 172              		.global	Pwm_Wakeup
 173              		.code	16
 174              		.thumb_func
 175              		.type	Pwm_Wakeup, %function
 176              	Pwm_Wakeup:
 177              	.LFB5:
 157:Generated_Source\PSoC4/Pwm_PM.c **** 
 158:Generated_Source\PSoC4/Pwm_PM.c **** 
 159:Generated_Source\PSoC4/Pwm_PM.c **** /*******************************************************************************
 160:Generated_Source\PSoC4/Pwm_PM.c **** * Function Name: Pwm_Wakeup
 161:Generated_Source\PSoC4/Pwm_PM.c **** ********************************************************************************
 162:Generated_Source\PSoC4/Pwm_PM.c **** *
 163:Generated_Source\PSoC4/Pwm_PM.c **** * Summary:
 164:Generated_Source\PSoC4/Pwm_PM.c **** *  Restores and enables the user configuration. Should be called just after
 165:Generated_Source\PSoC4/Pwm_PM.c **** *  awaking from sleep.
ARM GAS  C:\Users\black\AppData\Local\Temp\ccpcAeEZ.s 			page 7


 166:Generated_Source\PSoC4/Pwm_PM.c **** *
 167:Generated_Source\PSoC4/Pwm_PM.c **** * Parameters:
 168:Generated_Source\PSoC4/Pwm_PM.c **** *  None
 169:Generated_Source\PSoC4/Pwm_PM.c **** *
 170:Generated_Source\PSoC4/Pwm_PM.c **** * Return:
 171:Generated_Source\PSoC4/Pwm_PM.c **** *  None
 172:Generated_Source\PSoC4/Pwm_PM.c **** *
 173:Generated_Source\PSoC4/Pwm_PM.c **** * Global variables:
 174:Generated_Source\PSoC4/Pwm_PM.c **** *  Pwm_backup.pwmEnable:  Is used to restore the enable state of
 175:Generated_Source\PSoC4/Pwm_PM.c **** *  block on wakeup from sleep mode.
 176:Generated_Source\PSoC4/Pwm_PM.c **** *
 177:Generated_Source\PSoC4/Pwm_PM.c **** *******************************************************************************/
 178:Generated_Source\PSoC4/Pwm_PM.c **** void Pwm_Wakeup(void) 
 179:Generated_Source\PSoC4/Pwm_PM.c **** {
 178              		.loc 1 179 0
 179              		.cfi_startproc
 180              		@ args = 0, pretend = 0, frame = 0
 181              		@ frame_needed = 1, uses_anonymous_args = 0
 182 0000 80B5     		push	{r7, lr}
 183              		.cfi_def_cfa_offset 8
 184              		.cfi_offset 7, -8
 185              		.cfi_offset 14, -4
 186 0002 00AF     		add	r7, sp, #0
 187              		.cfi_def_cfa_register 7
 180:Generated_Source\PSoC4/Pwm_PM.c ****      /* Restore registers values */
 181:Generated_Source\PSoC4/Pwm_PM.c ****     Pwm_RestoreConfig();
 188              		.loc 1 181 0
 189 0004 FFF7FEFF 		bl	Pwm_RestoreConfig
 182:Generated_Source\PSoC4/Pwm_PM.c **** 
 183:Generated_Source\PSoC4/Pwm_PM.c ****     if(Pwm_backup.PWMEnableState != 0u)
 190              		.loc 1 183 0
 191 0008 044B     		ldr	r3, .L15
 192 000a 1B78     		ldrb	r3, [r3]
 193 000c 002B     		cmp	r3, #0
 194 000e 01D0     		beq	.L14
 184:Generated_Source\PSoC4/Pwm_PM.c ****     {
 185:Generated_Source\PSoC4/Pwm_PM.c ****         /* Enable component's operation */
 186:Generated_Source\PSoC4/Pwm_PM.c ****         Pwm_Enable();
 195              		.loc 1 186 0
 196 0010 FFF7FEFF 		bl	Pwm_Enable
 197              	.L14:
 187:Generated_Source\PSoC4/Pwm_PM.c ****     } /* Do nothing if component's block was disabled before */
 188:Generated_Source\PSoC4/Pwm_PM.c **** 
 189:Generated_Source\PSoC4/Pwm_PM.c **** }
 198              		.loc 1 189 0
 199 0014 C046     		nop
 200 0016 BD46     		mov	sp, r7
 201              		@ sp needed
 202 0018 80BD     		pop	{r7, pc}
 203              	.L16:
 204 001a C046     		.align	2
 205              	.L15:
 206 001c 00000000 		.word	Pwm_backup
 207              		.cfi_endproc
 208              	.LFE5:
 209              		.size	Pwm_Wakeup, .-Pwm_Wakeup
 210              		.text
ARM GAS  C:\Users\black\AppData\Local\Temp\ccpcAeEZ.s 			page 8


 211              	.Letext0:
 212              		.file 2 "Generated_Source\\PSoC4\\cytypes.h"
 213              		.file 3 "Generated_Source\\PSoC4\\Pwm.h"